Certificate:
    Data:
        Version: 3 (0x2)
        Serial Number:
            8d:fd:28:48:cd:3a:1e:0d
    Signature Algorithm: sha256WithRSAEncryption
        Issuer: C=UA, ST=Kharkiv, O=Cupermind, OU=UA2WEB, CN=ua2web.com/emailAddress=lavie@cupermind.com
        Validity
            Not Before: Jan 28 13:27:53 2019 GMT
            Not After : Jan 27 13:27:53 2022 GMT
        Subject: C=UA, ST=Kharkiv, O=Cupermind, OU=UA2WEB, CN=ua2web.com/emailAddress=lavie@cupermind.com
        Subject Public Key Info:
            Public Key Algorithm: rsaEncryption
                Public-Key: (2048 bit)
                Modulus:
                    00:b8:ef:6f:6d:d9:ff:50:ab:78:cb:69:34:7f:16:
                    19:64:25:3d:10:8e:8d:22:b8:e0:0a:27:11:fa:d1:
                    ad:7c:20:8c:60:df:1b:a7:e0:05:95:82:37:b7:1e:
                    c4:01:f2:e2:cf:ba:4b:a0:a5:09:68:d8:cf:7b:d1:
                    a8:cd:36:c0:13:65:f5:7c:de:49:dd:fc:f3:5a:45:
                    c2:a8:51:c9:d0:bd:bf:03:8b:3e:c7:a8:83:34:fa:
                    2c:e6:7b:61:49:bf:34:0e:2a:ba:92:98:6f:68:b1:
                    a5:41:06:12:cb:28:67:0d:e7:f6:8c:56:b8:8e:8b:
                    72:cd:f7:13:3f:0d:2b:ba:8c:fe:8d:1e:d2:76:1d:
                    81:00:6b:3d:42:9e:b9:79:ac:8a:0f:e0:27:f3:12:
                    45:59:8a:6d:02:64:1d:8e:55:38:a7:1e:51:d4:47:
                    29:72:43:77:fb:da:e3:64:ea:92:a5:b0:34:01:fa:
                    18:87:83:b8:0c:51:6c:9e:44:ee:6c:82:d3:47:74:
                    71:fb:ef:12:1c:1c:3f:f3:c6:d9:1c:88:6d:71:64:
                    d0:14:55:bd:d4:cb:22:92:c5:a2:e0:e3:d2:a8:0f:
                    a6:1f:2e:fb:85:80:49:79:6b:ef:1f:5a:83:be:92:
                    41:95:a5:9f:95:52:37:f0:7f:23:89:d5:b8:74:9c:
                    6d:63
                Exponent: 65537 (0x10001)
        X509v3 extensions:
            X509v3 Subject Key Identifier: 
                AB:BB:6A:38:25:A9:85:11:8C:0D:42:84:C8:33:4F:ED:29:0B:69:FD
            X509v3 Authority Key Identifier: 
                keyid:AB:BB:6A:38:25:A9:85:11:8C:0D:42:84:C8:33:4F:ED:29:0B:69:FD

            X509v3 Basic Constraints: critical
                CA:TRUE
    Signature Algorithm: sha256WithRSAEncryption
         b1:af:fd:3a:ef:e9:ab:bf:72:f5:ad:ae:dc:0c:1c:00:d3:fd:
         3e:30:cf:7b:fe:4e:e5:fa:e1:9e:54:31:1b:f5:cd:43:f2:29:
         4a:12:fe:db:1c:60:a1:f7:ad:63:e0:69:50:db:a4:7f:8d:d7:
         d4:57:ac:56:8c:be:8a:62:92:06:74:18:a7:4a:9f:86:c4:9a:
         0f:ce:93:81:71:35:0c:1b:bd:c7:8e:8c:a3:a3:97:4d:3d:4f:
         78:54:b0:c7:07:2a:d4:d4:69:24:8d:b2:6c:80:90:09:28:3d:
         98:e6:42:a1:17:67:ba:6a:57:1d:04:cf:e8:85:c8:03:6c:74:
         54:01:c8:15:c1:cf:f0:95:d5:f3:3b:3f:46:7e:55:d3:d4:55:
         13:ab:59:e1:1a:f2:6c:55:47:9a:17:61:60:d0:63:02:28:7b:
         fe:e6:56:f6:b6:bc:24:29:c8:43:94:52:e9:4f:d1:b2:c1:4d:
         15:52:16:b1:70:1e:af:9f:1b:eb:32:e9:6a:52:df:82:5e:6e:
         f1:67:f3:15:b9:58:75:87:e4:79:31:d0:cb:c7:58:14:11:ed:
         c2:fb:01:8f:f3:98:07:14:2b:cf:34:5b:2b:33:2d:2a:e8:9b:
         c4:5c:8a:76:9b:95:95:77:cc:a3:96:42:48:93:01:6d:61:e9:
         8c:23:19:72
-----BEGIN CERTIFICATE-----
MIID0DCCArigAwIBAgIJAI39KEjNOh4NMA0GCSqGSIb3DQEBCwUAMH0xCzAJBgNV
BAYTAlVBMRAwDgYDVQQIDAdLaGFya2l2MRIwEAYDVQQKDAlDdXBlcm1pbmQxDzAN
BgNVBAsMBlVBMldFQjETMBEGA1UEAwwKdWEyd2ViLmNvbTEiMCAGCSqGSIb3DQEJ
ARYTbGF2aWVAY3VwZXJtaW5kLmNvbTAeFw0xOTAxMjgxMzI3NTNaFw0yMjAxMjcx
MzI3NTNaMH0xCzAJBgNVBAYTAlVBMRAwDgYDVQQIDAdLaGFya2l2MRIwEAYDVQQK
DAlDdXBlcm1pbmQxDzANBgNVBAsMBlVBMldFQjETMBEGA1UEAwwKdWEyd2ViLmNv
bTEiMCAGCSqGSIb3DQEJARYTbGF2aWVAY3VwZXJtaW5kLmNvbTCCASIwDQYJKoZI
hvcNAQEBBQADggEPADCCAQoCggEBALjvb23Z/1CreMtpNH8WGWQlPRCOjSK44Aon
EfrRrXwgjGDfG6fgBZWCN7cexAHy4s+6S6ClCWjYz3vRqM02wBNl9XzeSd3881pF
wqhRydC9vwOLPseogzT6LOZ7YUm/NA4qupKYb2ixpUEGEssoZw3n9oxWuI6Lcs33
Ez8NK7qM/o0e0nYdgQBrPUKeuXmsig/gJ/MSRVmKbQJkHY5VOKceUdRHKXJDd/va
42TqkqWwNAH6GIeDuAxRbJ5E7myC00d0cfvvEhwcP/PG2RyIbXFk0BRVvdTLIpLF
ouDj0qgPph8u+4WASXlr7x9ag76SQZWln5VSN/B/I4nVuHScbWMCAwEAAaNTMFEw
HQYDVR0OBBYEFKu7ajglqYURjA1ChMgzT+0pC2n9MB8GA1UdIwQYMBaAFKu7ajgl
qYURjA1ChMgzT+0pC2n9MA8GA1UdEwEB/wQFMAMBAf8wDQYJKoZIhvcNAQELBQAD
ggEBALGv/Trv6au/cvWtrtwMHADT/T4wz3v+TuX64Z5UMRv1zUPyKUoS/tscYKH3
rWPgaVDbpH+N19RXrFaMvopikgZ0GKdKn4bEmg/Ok4FxNQwbvceOjKOjl009T3hU
sMcHKtTUaSSNsmyAkAkoPZjmQqEXZ7pqVx0Ez+iFyANsdFQByBXBz/CV1fM7P0Z+
VdPUVROrWeEa8mxVR5oXYWDQYwIoe/7mVva2vCQpyEOUUulP0bLBTRVSFrFwHq+f
G+sy6WpS34JebvFn8xW5WHWH5Hkx0MvHWBQR7cL7AY/zmAcUK880WyszLSrom8Rc
inablZV3zKOWQkiTAW1h6YwjGXI=
-----END CERTIFICATE-----
